Microsoft (R) Macro Assembler Version 5.10                  2/5/21 18:09:11

                                                             Page     1-1


 = 0024				EOFLine  EQU  '$'         ; –û–ø—Ä–µ–¥–µ–ª–µ–Ω–
				∏–µ —Å–∏–º–≤–æ–ª—å–Ω–æ–π –∫–æ–Ω—Å—Ç–∞–Ω—Ç—ã
 = 0002				a  EQU 2
 = 0001				B  EQU 1
 = 0003				I  EQU 3
 = 0000				K  EQU 0                         ;     "–ö–æ–Ω–
				µ—Ü —Å—Ç—Ä–æ–∫–∏"
				
				
				; –°—Ç–µ–∫  –ø—Ä–æ–≥—Ä–∞–º–º—ã
				
 0000				AStack    SEGMENT  STACK
 0000  000C[			          DW 12 DUP(?)    ; –û—Ç–≤–æ–¥–∏—Ç—Å—è 
				12 —Å–ª–æ–≤ –ø–∞–º—è—Ç–∏
	   ????			
			 ]	
				
 0018				AStack    ENDS
				
				; –î–∞–Ω–Ω—ã–µ –ø—Ä–æ–≥—Ä–∞–º–º—ã
 0000				DATA      SEGMENT
				
				;  –î–∏—Ä–µ–∫—Ç–∏–≤—ã –æ–ø–∏—Å–∞–Ω–∏—è –¥–∞–Ω–Ω
				—ã—Ö
				
 0000  0000			F1 DW 0
 0002  0000			F2 DW 0
 0004  0000			F3 DW 0
 0006				DATA      ENDS
				
				; –ö–æ–¥ –ø—Ä–æ–≥—Ä–∞–º–º—ã
				
 0000				CODE      SEGMENT
				          ASSUME CS:CODE, DS:DATA, SS:AStack
				
				; –ì–æ–ª–æ–≤–Ω–∞—è –ø—Ä–æ—Ü–µ–¥—É—Ä–∞
 0000				Main      PROC  FAR
 0000  1E			          push  DS       ;\  –°–æ—Ö—Ä–∞–Ω–µ–Ω–∏
				–µ –∞–¥—Ä–µ—Å–∞ –Ω–∞—á–∞–ª–∞ PSP –≤ —Å—Ç–µ–∫–µ
 0001  2B C0			          sub   AX,AX    ; > –¥–ª—è –ø–æ—Å–ª–µ–
				¥—É—é—â–µ–≥–æ –≤–æ—Å—Å—Ç–∞–Ω–æ–≤–ª–µ–Ω–∏—è –ø–æ
 0003  50			          push  AX       ;/–∫–æ–º–∞–Ω–¥–µ ret, 
				–∑–∞–≤–µ—Ä—à–∞—é—â–µ–π –ø—Ä–æ—Ü–µ–¥—É—Ä—É  
				          
				          ;–∑–∞–ø–∏—Å—ã–≤–∞–µ–º —É—Å–ª–æ–≤–∏–µ 
				–¥–ª—è F1 
				          
 0004  B8 0002			          MOV AX,a       ; –ó–∞–Ω–æ—Å–∏–º –∑–Ω–
				∞—á–µ–Ω–∏–µ –∞
 0007  2D 0001			          SUB AX,b       ; –í—ã—á–∏—Ç–∞–µ–º –∏–
				∑ –∞ –∑–Ω–∞—á–µ–Ω–∏–µ b
 000A  3D 0000			          cmp ax,0       ; –°—Ä–∞–≤–Ω–∏–≤–∞–µ–º
				 –ø–æ–ª—É—á–µ–Ω–Ω–æ–µ –∞ —Å 0
 000D  7F 14			          Jg Metka1      ; –ü–µ—Ä–µ—Ö–æ–¥ –∫ –ú
Microsoft (R) Macro Assembler Version 5.10                  2/5/21 18:09:11

                                                             Page     1-2


				1, –µ—Å–ª–∏ –∞>0
 000F  B8 0003			          MOV AX,I       ; –ó–∞–Ω–æ—Å–∏–º –∑–Ω–
				∞—á–µ–Ω–∏–µ i 
 0012  D1 E0			          SHL AX,1       ; –°–¥–≤–∏–≥ –Ω–∞ 1–± 
				(—É–º–Ω–æ–∂–∞–µ–º –Ω–∞ 2)
						  ;MOV BX,I
 0014  05 0003			          ADD AX,I       ; 2*i + i = 3i
				          ;Mov BX,4       ; 
 0017  05 0004			          ADD AX,4      ; –°–ª–æ–∂–µ–Ω–∏–µ (3*i
				 + 4)
 001A  A3 0000 R		          MOV F1,AX      ; –ü—Ä–∏—Å–≤–∞–∏–≤–∞–µ
				–º F1 –∑–Ω–∞—á–µ–Ω–∏–µ –ê—Ö   
 001D  39 06 0000 R		          CMP F1,AX    
 0021  74 0E			          JE Fun2  
 0023				   Metka1:               ;   
 0023  B8 0003			          mov AX,I       ;
 0026  D1 E0			          SHL AX,1       ; 2*i
 0028  BB 000F			          MOV BX,15
 002B  2B D8			          SUB BX,AX      ; 15 - 2*i
 002D  89 1E 0000 R		          MOV F1,BX      ; –ü—Ä–∏—Å–≤–∞–∏–≤–∞–µ
				–º F1 –∑–Ω–∞—á–µ–Ω–∏–µ B—Ö   
				          
				          
				
				          ; –∑–∞–ø–∏—Å—ã–≤–∞–µ–º —É—Å–ª–æ–≤–∏–µ
				 –¥–ª—è F2 
 0031				          Fun2:
 0031  7F 14			          JG Metka2      ; –ü–µ—Ä–µ—Ö–æ–¥ –∫ –ú
				1, –µ—Å–ª–∏ –∞>0
 0033  B8 0003			          mov AX,I       ; –ó–∞–Ω–æ—Å–∏–º –∑–Ω–
				∞—á–µ–Ω–∏–µ i 
 0036  D1 E0			          SHL AX,1       ; –°–¥–≤–∏–≥ –Ω–∞ 1–± 
				(—É–º–Ω–æ–∂–∞–µ–º –Ω–∞ 2)
						  ;MOV BX,I
 0038  05 0003			          ADD AX,I       ; 2*i + i = 3*i
				          ;MOV BX,6
 003B  05 0006			          ADD AX,6      ; 3*(i + 2) = 3*i + 6 
 003E  A3 0002 R		          MOV F2,Ax      ; –ü—Ä–∏—Å–≤–∞–∏–≤–∞–µ
				–º F2 –∑–Ω–∞—á–µ–Ω–∏–µ –ê—Ö 
 0041  39 06 0002 R		          CMP F2,Ax      ; –°—Ä–∞–≤–Ω–µ–Ω–∏–µ —
				Ä–µ–∑—É–ª—å—Ç–∞—Ç–∞
 0045  74 16			          JE  Fun3       ; –ü–µ—Ä–µ—Ö–æ–¥, –µ—Å
				–ª–∏ —Ä–∞–≤–Ω–æ 
 0047				  Metka2:                ;
 0047  B8 0003			          MOV AX,I       ;
 004A  D1 E0			          SHL AX,1       ; 2*i
 004C  D1 E0					  SHL AX,1       ; 2*i
						  ;MOV BX,I
 004E  05 0003			          ADD AX,I       ; 5*i
 0051  05 0003					  ADD AX,I       ; 6*i
 0054  BB 0004					  MOV BX,4
 0057  2B D8			          SUB BX,AX      ; 4 - 6*i 
 0059  89 1E 0002 R		          MOV F2,BX      ; –ü—Ä–∏—Å–≤–∞–∏–≤–∞–µ
				–º F2 –∑–Ω–∞—á–µ–Ω–∏–µ –ê—Ö 
Microsoft (R) Macro Assembler Version 5.10                  2/5/21 18:09:11

                                                             Page     1-3


				          
				          ; –∑–∞–ø–∏—Å—ã–≤–∞–µ–º —É—Å–ª–æ–≤–∏–µ
				 –¥–ª—è F3 
				           
 005D				          Fun3: 
 005D  B8 0000			          MOV AX,K       ;
 0060  3D 0000			          CMP AX,0       ;
 0063  75 1C			          JNE Metka3     ; –ï—Å–ª–∏ –∫/=0, —Ç–æ
				 –ø–µ—Ä–µ—Ö–æ–¥
 0065  A1 0000 R		          mov AX,F1      ;
 0068  8B 1E 0002 R		          mov BX,F2      ; 
 006C  03 D8			          ADD BX,AX      ; i1 + i2
 006E  83 FB 00			          CMP BX,0       ; 
 0071  7F 09			          JG Metka4      ;
									
					 ; i1 + i2 <= 0
 0073  83 F3 FF			          xor BX, 0FFFFh ; –∏–Ω–≤–µ—Ä—Å–∏—è –≤—
				Å–µ—Ö –±–∏—Ç–æ–≤
 0076  43					  inc BX         ; –¥–æ–±–∞–≤–ª
				—è–µ–º 1               
 0077  89 1E 0004 R		          mov F3,BX      ;
 007B  CB					  RET            ;
 007C				   Metka4:               ; i1 + i2 > 0
 007C  89 1E 0004 R		          mov F3,BX		 ; –æ—Ç–≤–µ—Ç –
				∑–∞–ø–∏—Å—ã–≤–∞–µ–º –≤ F3
 0080  CB					  RET            ;
 0081				   Metka3:               ;
 0081  A1 0000 R		          MOV AX,F1      ;
 0084  8B 1E 0002 R		          MOV BX,F2      ; 
 0088  2B D8			          SUB BX,AX      ; 
 008A  83 FB 00			          CMP BX,0       ;
 008D  7F 04					  JG Metka5      ;
				          				 ; i2 <
				= i1
 008F  A3 0004 R				  MOV F3,AX 
 0092  CB			          ret 
 0093				Metka5:                  ;
 0093  8B 1E 0002 R		          MOV BX,F2      ; i2 > i1
 0097  89 1E 0004 R		          MOV F3,BX      ;
 009B  CB			          ret            ; –í—ã—Ö–æ–¥ –≤ DOS –ø
				–æ –∫–æ–º–∞–Ω–¥–µ,
				                         ; –Ω–∞—Ö–æ–¥—è—â–µ–π—Å
				—è –≤ 1-–æ–º —Å–ª–æ–≤–µ PSP.
 009C				CODE      ENDS
 0000				Main      ENDP
				          END main
Microsoft (R) Macro Assembler Version 5.10                  2/5/21 18:09:11

                                                             Symbols-1


Segments and Groups:

                N a m e         	Length	 Align	Combine Class

ASTACK . . . . . . . . . . . . .  	0018	PARA	STACK	
CODE . . . . . . . . . . . . . .  	009C	PARA	NONE	
DATA . . . . . . . . . . . . . .  	0006	PARA	NONE	

Symbols:            

                N a m e         	Type	 Value	 Attr

A  . . . . . . . . . . . . . . .  	NUMBER	0002	

B  . . . . . . . . . . . . . . .  	NUMBER	0001	

EOFLINE  . . . . . . . . . . . .  	NUMBER	0024	

F1 . . . . . . . . . . . . . . .  	L WORD	0000	DATA
F2 . . . . . . . . . . . . . . .  	L WORD	0002	DATA
F3 . . . . . . . . . . . . . . .  	L WORD	0004	DATA
FUN2 . . . . . . . . . . . . . .  	L NEAR	0031	CODE
FUN3 . . . . . . . . . . . . . .  	L NEAR	005D	CODE

I  . . . . . . . . . . . . . . .  	NUMBER	0003	

K  . . . . . . . . . . . . . . .  	NUMBER	0000	

MAIN . . . . . . . . . . . . . .  	F PROC	0000	CODE	Length = 0000
METKA1 . . . . . . . . . . . . .  	L NEAR	0023	CODE
METKA2 . . . . . . . . . . . . .  	L NEAR	0047	CODE
METKA3 . . . . . . . . . . . . .  	L NEAR	0081	CODE
METKA4 . . . . . . . . . . . . .  	L NEAR	007C	CODE
METKA5 . . . . . . . . . . . . .  	L NEAR	0093	CODE

@CPU . . . . . . . . . . . . . .  	TEXT  0101h		
@FILENAME  . . . . . . . . . . .  	TEXT  lr3		
@VERSION . . . . . . . . . . . .  	TEXT  510		


    117 Source  Lines
    117 Total   Lines
     24 Symbols

  48072 + 455091 Bytes symbol space free

      0 Warning Errors
      0 Severe  Errors
